(lp0
(S'cppflags'
p1
ccopy_reg
_reconstructor
p2
(cino.utils
SpaceList
p3
c__builtin__
list
p4
(lp5
S'-mmcu=atmega328p'
p6
aS'-DF_CPU=16000000L'
p7
aS'-DARDUINO=105'
p8
aS'-I/Applications/Arduino.app/Contents/Resources/Java/hardware/arduino/cores/arduino'
p9
aS'-ffunction-sections'
p10
aS'-fdata-sections'
p11
aS'-g'
p12
aS'-Os'
p13
aS'-w'
p14
aS'-I/Applications/Arduino.app/Contents/Resources/Java/hardware/arduino/variants/standard'
p15
aS'-I/Applications/Arduino.app/Contents/Resources/Java/hardware/arduino/cores/arduino'
p16
aS'-I/Applications/Arduino.app/Contents/Resources/Java/hardware/arduino/cores/arduino/avr-libc'
p17
atp18
Rp19
tp20
a(S'cxx'
p21
S'/Applications/Arduino.app/Contents/Resources/Java/hardware/tools/avr/bin/avr-g++'
p22
tp23
a(S'build_dir'
p24
S'.build/uno'
p25
tp26
a(S'avrdude'
p27
S'/Applications/Arduino.app/Contents/Resources/Java/hardware/tools/avr/bin/avrdude'
p28
tp29
a(S'ar'
p30
S'/Applications/Arduino.app/Contents/Resources/Java/hardware/tools/avr/bin/avr-ar'
p31
tp32
a(S'names'
p33
(dp34
S'cpp'
p35
S'%s.cpp'
p36
sS'obj'
p37
S'%s.o'
p38
sS'lib'
p39
S'lib%s.a'
p40
sS'deps'
p41
S'%s.d'
p42
stp43
a(S'ldflags'
p44
g2
(g3
g4
(lp45
g6
aS'-Wl,-Os'
p46
aS'-Wl,--gc-sections'
p47
atp48
Rp49
tp50
a(S'serial'
p51
S'/usr/local/bin/picocom'
p52
tp53
a(S'objcopy'
p54
S'/Applications/Arduino.app/Contents/Resources/Java/hardware/tools/avr/bin/avr-objcopy'
p55
tp56
a(S'board_models'
p57
cino.environment
BoardModels
p58
((lp59
(lp60
S'uno'
p61
a(dp62
S'build'
p63
(dp64
S'core'
p65
S'arduino'
p66
sS'mcu'
p67
S'atmega328p'
p68
sS'f_cpu'
p69
S'16000000L'
p70
sS'variant'
p71
S'standard'
p72
ssS'bootloader'
p73
(dp74
S'extended_fuses'
p75
S'0x05'
p76
sS'high_fuses'
p77
S'0xde'
p78
sS'low_fuses'
p79
S'0xff'
p80
sS'lock_bits'
p81
S'0x0F'
p82
sS'file'
p83
S'optiboot_atmega328.hex'
p84
sS'path'
p85
S'optiboot'
p86
sS'unlock_bits'
p87
S'0x3F'
p88
ssS'upload'
p89
(dp90
S'protocol'
p91
S'arduino'
p92
sS'maximum_size'
p93
S'32256'
p94
sS'speed'
p95
S'115200'
p96
ssS'name'
p97
S'Arduino Uno'
p98
saa(lp99
S'atmega328'
p100
a(dp101
S'build'
p102
(dp103
S'core'
p104
S'arduino'
p105
sS'mcu'
p106
S'atmega328p'
p107
sS'f_cpu'
p108
S'16000000L'
p109
sS'variant'
p110
S'standard'
p111
ssS'bootloader'
p112
(dp113
S'extended_fuses'
p114
S'0x05'
p115
sS'high_fuses'
p116
S'0xDA'
p117
sS'low_fuses'
p118
S'0xFF'
p119
sS'lock_bits'
p120
S'0x0F'
p121
sS'file'
p122
S'ATmegaBOOT_168_atmega328.hex'
p123
sS'path'
p124
S'atmega'
p125
sS'unlock_bits'
p126
S'0x3F'
p127
ssS'upload'
p128
(dp129
S'protocol'
p130
S'arduino'
p131
sS'maximum_size'
p132
S'30720'
p133
sS'speed'
p134
S'57600'
p135
ssS'name'
p136
S'Arduino Duemilanove w/ ATmega328'
p137
saa(lp138
S'diecimila'
p139
a(dp140
S'build'
p141
(dp142
S'core'
p143
S'arduino'
p144
sS'mcu'
p145
S'atmega168'
p146
sS'f_cpu'
p147
S'16000000L'
p148
sS'variant'
p149
S'standard'
p150
ssS'bootloader'
p151
(dp152
S'extended_fuses'
p153
S'0x00'
p154
sS'high_fuses'
p155
S'0xdd'
p156
sS'low_fuses'
p157
S'0xff'
p158
sS'lock_bits'
p159
S'0x0F'
p160
sS'file'
p161
S'ATmegaBOOT_168_diecimila.hex'
p162
sS'path'
p163
S'atmega'
p164
sS'unlock_bits'
p165
S'0x3F'
p166
ssS'upload'
p167
(dp168
S'protocol'
p169
S'arduino'
p170
sS'maximum_size'
p171
S'14336'
p172
sS'speed'
p173
S'19200'
p174
ssS'name'
p175
S'Arduino Diecimila or Duemilanove w/ ATmega168'
p176
saa(lp177
S'nano328'
p178
a(dp179
S'build'
p180
(dp181
S'core'
p182
S'arduino'
p183
sS'mcu'
p184
S'atmega328p'
p185
sS'f_cpu'
p186
S'16000000L'
p187
sS'variant'
p188
S'eightanaloginputs'
p189
ssS'bootloader'
p190
(dp191
S'extended_fuses'
p192
S'0x05'
p193
sS'high_fuses'
p194
S'0xDA'
p195
sS'low_fuses'
p196
S'0xFF'
p197
sS'lock_bits'
p198
S'0x0F'
p199
sS'file'
p200
S'ATmegaBOOT_168_atmega328.hex'
p201
sS'path'
p202
S'atmega'
p203
sS'unlock_bits'
p204
S'0x3F'
p205
ssS'upload'
p206
(dp207
S'protocol'
p208
S'arduino'
p209
sS'maximum_size'
p210
S'30720'
p211
sS'speed'
p212
S'57600'
p213
ssS'name'
p214
S'Arduino Nano w/ ATmega328'
p215
saa(lp216
S'nano'
p217
a(dp218
S'build'
p219
(dp220
S'core'
p221
S'arduino'
p222
sS'mcu'
p223
S'atmega168'
p224
sS'f_cpu'
p225
S'16000000L'
p226
sS'variant'
p227
S'eightanaloginputs'
p228
ssS'bootloader'
p229
(dp230
S'extended_fuses'
p231
S'0x00'
p232
sS'high_fuses'
p233
S'0xdd'
p234
sS'low_fuses'
p235
S'0xff'
p236
sS'lock_bits'
p237
S'0x0F'
p238
sS'file'
p239
S'ATmegaBOOT_168_diecimila.hex'
p240
sS'path'
p241
S'atmega'
p242
sS'unlock_bits'
p243
S'0x3F'
p244
ssS'upload'
p245
(dp246
S'protocol'
p247
S'arduino'
p248
sS'maximum_size'
p249
S'14336'
p250
sS'speed'
p251
S'19200'
p252
ssS'name'
p253
S'Arduino Nano w/ ATmega168'
p254
saa(lp255
S'mega2560'
p256
a(dp257
S'build'
p258
(dp259
S'core'
p260
S'arduino'
p261
sS'mcu'
p262
S'atmega2560'
p263
sS'f_cpu'
p264
S'16000000L'
p265
sS'variant'
p266
S'mega'
p267
ssS'bootloader'
p268
(dp269
S'extended_fuses'
p270
S'0xFD'
p271
sS'high_fuses'
p272
S'0xD8'
p273
sS'low_fuses'
p274
S'0xFF'
p275
sS'lock_bits'
p276
S'0x0F'
p277
sS'file'
p278
S'stk500boot_v2_mega2560.hex'
p279
sS'path'
p280
S'stk500v2'
p281
sS'unlock_bits'
p282
S'0x3F'
p283
ssS'upload'
p284
(dp285
S'protocol'
p286
S'wiring'
p287
sS'maximum_size'
p288
S'258048'
p289
sS'speed'
p290
S'115200'
p291
ssS'name'
p292
S'Arduino Mega 2560 or Mega ADK'
p293
saa(lp294
S'mega'
p295
a(dp296
S'build'
p297
(dp298
S'core'
p299
S'arduino'
p300
sS'mcu'
p301
S'atmega1280'
p302
sS'f_cpu'
p303
S'16000000L'
p304
sS'variant'
p305
S'mega'
p306
ssS'bootloader'
p307
(dp308
S'extended_fuses'
p309
S'0xF5'
p310
sS'high_fuses'
p311
S'0xDA'
p312
sS'low_fuses'
p313
S'0xFF'
p314
sS'lock_bits'
p315
S'0x0F'
p316
sS'file'
p317
S'ATmegaBOOT_168_atmega1280.hex'
p318
sS'path'
p319
S'atmega'
p320
sS'unlock_bits'
p321
S'0x3F'
p322
ssS'upload'
p323
(dp324
S'protocol'
p325
S'arduino'
p326
sS'maximum_size'
p327
S'126976'
p328
sS'speed'
p329
S'57600'
p330
ssS'name'
p331
S'Arduino Mega (ATmega1280)'
p332
saa(lp333
S'leonardo'
p334
a(dp335
S'build'
p336
(dp337
S'core'
p338
S'arduino'
p339
sS'f_cpu'
p340
S'16000000L'
p341
sS'vid'
p342
S'0x2341'
p343
sS'pid'
p344
S'0x8036'
p345
sS'variant'
p346
S'leonardo'
p347
sS'mcu'
p348
S'atmega32u4'
p349
ssS'bootloader'
p350
(dp351
S'extended_fuses'
p352
S'0xcb'
p353
sS'high_fuses'
p354
S'0xd8'
p355
sS'low_fuses'
p356
S'0xff'
p357
sS'lock_bits'
p358
S'0x2F'
p359
sS'file'
p360
S'Caterina-Leonardo.hex'
p361
sS'path'
p362
S'caterina'
p363
sS'unlock_bits'
p364
S'0x3F'
p365
ssS'upload'
p366
(dp367
S'protocol'
p368
S'avr109'
p369
sS'maximum_size'
p370
S'28672'
p371
sS'speed'
p372
S'57600'
p373
sS'disable_flushing'
p374
S'true'
p375
ssS'name'
p376
S'Arduino Leonardo'
p377
saa(lp378
S'esplora'
p379
a(dp380
S'build'
p381
(dp382
S'core'
p383
S'arduino'
p384
sS'f_cpu'
p385
S'16000000L'
p386
sS'vid'
p387
S'0x2341'
p388
sS'pid'
p389
S'0x803C'
p390
sS'variant'
p391
S'leonardo'
p392
sS'mcu'
p393
S'atmega32u4'
p394
ssS'bootloader'
p395
(dp396
S'extended_fuses'
p397
S'0xcb'
p398
sS'high_fuses'
p399
S'0xd8'
p400
sS'low_fuses'
p401
S'0xff'
p402
sS'lock_bits'
p403
S'0x2F'
p404
sS'file'
p405
S'Caterina-Esplora.hex'
p406
sS'path'
p407
S'caterina'
p408
sS'unlock_bits'
p409
S'0x3F'
p410
ssS'upload'
p411
(dp412
S'protocol'
p413
S'avr109'
p414
sS'maximum_size'
p415
S'28672'
p416
sS'speed'
p417
S'57600'
p418
sS'disable_flushing'
p419
S'true'
p420
ssS'name'
p421
S'Arduino Esplora'
p422
saa(lp423
S'micro'
p424
a(dp425
S'build'
p426
(dp427
S'core'
p428
S'arduino'
p429
sS'f_cpu'
p430
S'16000000L'
p431
sS'vid'
p432
S'0x2341'
p433
sS'pid'
p434
S'0x8037'
p435
sS'variant'
p436
S'micro'
p437
sS'mcu'
p438
S'atmega32u4'
p439
ssS'bootloader'
p440
(dp441
S'extended_fuses'
p442
S'0xcb'
p443
sS'high_fuses'
p444
S'0xd8'
p445
sS'low_fuses'
p446
S'0xff'
p447
sS'lock_bits'
p448
S'0x2F'
p449
sS'file'
p450
S'Caterina-Micro.hex'
p451
sS'path'
p452
S'caterina'
p453
sS'unlock_bits'
p454
S'0x3F'
p455
ssS'upload'
p456
(dp457
S'protocol'
p458
S'avr109'
p459
sS'maximum_size'
p460
S'28672'
p461
sS'speed'
p462
S'57600'
p463
sS'disable_flushing'
p464
S'true'
p465
ssS'name'
p466
S'Arduino Micro'
p467
saa(lp468
S'mini328'
p469
a(dp470
S'build'
p471
(dp472
S'core'
p473
S'arduino'
p474
sS'mcu'
p475
S'atmega328p'
p476
sS'f_cpu'
p477
S'16000000L'
p478
sS'variant'
p479
S'eightanaloginputs'
p480
ssS'bootloader'
p481
(dp482
S'extended_fuses'
p483
S'0x05'
p484
sS'high_fuses'
p485
S'0xd8'
p486
sS'low_fuses'
p487
S'0xff'
p488
sS'lock_bits'
p489
S'0x0F'
p490
sS'file'
p491
S'optiboot_atmega328-Mini.hex'
p492
sS'path'
p493
S'optiboot'
p494
sS'unlock_bits'
p495
S'0x3F'
p496
ssS'upload'
p497
(dp498
S'protocol'
p499
S'arduino'
p500
sS'maximum_size'
p501
S'28672'
p502
sS'speed'
p503
S'115200'
p504
ssS'name'
p505
S'Arduino Mini w/ ATmega328'
p506
saa(lp507
S'mini'
p508
a(dp509
S'build'
p510
(dp511
S'core'
p512
S'arduino'
p513
sS'mcu'
p514
S'atmega168'
p515
sS'f_cpu'
p516
S'16000000L'
p517
sS'variant'
p518
S'eightanaloginputs'
p519
ssS'bootloader'
p520
(dp521
S'extended_fuses'
p522
S'0x00'
p523
sS'high_fuses'
p524
S'0xdd'
p525
sS'low_fuses'
p526
S'0xff'
p527
sS'lock_bits'
p528
S'0x0F'
p529
sS'file'
p530
S'ATmegaBOOT_168_ng.hex'
p531
sS'path'
p532
S'atmega'
p533
sS'unlock_bits'
p534
S'0x3F'
p535
ssS'upload'
p536
(dp537
S'protocol'
p538
S'arduino'
p539
sS'maximum_size'
p540
S'14336'
p541
sS'speed'
p542
S'19200'
p543
ssS'name'
p544
S'Arduino Mini w/ ATmega168'
p545
saa(lp546
S'ethernet'
p547
a(dp548
S'build'
p549
(dp550
S'variant'
p551
S'standard'
p552
sS'mcu'
p553
S'atmega328p'
p554
sS'f_cpu'
p555
S'16000000L'
p556
sS'core'
p557
S'arduino'
p558
ssS'bootloader'
p559
(dp560
S'extended_fuses'
p561
S'0x05'
p562
sS'high_fuses'
p563
S'0xde'
p564
sS'low_fuses'
p565
S'0xff'
p566
sS'lock_bits'
p567
S'0x0F'
p568
sS'file'
p569
S'optiboot_atmega328.hex'
p570
sS'path'
p571
S'optiboot'
p572
sS'unlock_bits'
p573
S'0x3F'
p574
ssS'upload'
p575
(dp576
S'protocol'
p577
S'arduino'
p578
sS'maximum_size'
p579
S'32256'
p580
sS'speed'
p581
S'115200'
p582
ssS'name'
p583
S'Arduino Ethernet'
p584
saa(lp585
S'fio'
p586
a(dp587
S'build'
p588
(dp589
S'core'
p590
S'arduino'
p591
sS'mcu'
p592
S'atmega328p'
p593
sS'f_cpu'
p594
S'8000000L'
p595
sS'variant'
p596
S'eightanaloginputs'
p597
ssS'bootloader'
p598
(dp599
S'extended_fuses'
p600
S'0x05'
p601
sS'high_fuses'
p602
S'0xDA'
p603
sS'low_fuses'
p604
S'0xFF'
p605
sS'lock_bits'
p606
S'0x0F'
p607
sS'file'
p608
S'ATmegaBOOT_168_atmega328_pro_8MHz.hex'
p609
sS'path'
p610
S'arduino:atmega'
p611
sS'unlock_bits'
p612
S'0x3F'
p613
ssS'upload'
p614
(dp615
S'protocol'
p616
S'arduino'
p617
sS'maximum_size'
p618
S'30720'
p619
sS'speed'
p620
S'57600'
p621
ssS'name'
p622
S'Arduino Fio'
p623
saa(lp624
S'bt328'
p625
a(dp626
S'build'
p627
(dp628
S'core'
p629
S'arduino'
p630
sS'mcu'
p631
S'atmega328p'
p632
sS'f_cpu'
p633
S'16000000L'
p634
sS'variant'
p635
S'eightanaloginputs'
p636
ssS'bootloader'
p637
(dp638
S'extended_fuses'
p639
S'0x05'
p640
sS'high_fuses'
p641
S'0xd8'
p642
sS'low_fuses'
p643
S'0xff'
p644
sS'lock_bits'
p645
S'0x0F'
p646
sS'file'
p647
S'ATmegaBOOT_168_atmega328_bt.hex'
p648
sS'path'
p649
S'bt'
p650
sS'unlock_bits'
p651
S'0x3F'
p652
ssS'upload'
p653
(dp654
S'protocol'
p655
S'arduino'
p656
sS'maximum_size'
p657
S'28672'
p658
sS'speed'
p659
S'19200'
p660
sS'disable_flushing'
p661
S'true'
p662
ssS'name'
p663
S'Arduino BT w/ ATmega328'
p664
saa(lp665
S'bt'
p666
a(dp667
S'build'
p668
(dp669
S'core'
p670
S'arduino'
p671
sS'mcu'
p672
S'atmega168'
p673
sS'f_cpu'
p674
S'16000000L'
p675
sS'variant'
p676
S'eightanaloginputs'
p677
ssS'bootloader'
p678
(dp679
S'extended_fuses'
p680
S'0x00'
p681
sS'high_fuses'
p682
S'0xdd'
p683
sS'low_fuses'
p684
S'0xff'
p685
sS'lock_bits'
p686
S'0x0F'
p687
sS'file'
p688
S'ATmegaBOOT_168.hex'
p689
sS'path'
p690
S'bt'
p691
sS'unlock_bits'
p692
S'0x3F'
p693
ssS'upload'
p694
(dp695
S'protocol'
p696
S'arduino'
p697
sS'maximum_size'
p698
S'14336'
p699
sS'speed'
p700
S'19200'
p701
sS'disable_flushing'
p702
S'true'
p703
ssS'name'
p704
S'Arduino BT w/ ATmega168'
p705
saa(lp706
S'LilyPadUSB'
p707
a(dp708
S'build'
p709
(dp710
S'core'
p711
S'arduino'
p712
sS'f_cpu'
p713
S'8000000L'
p714
sS'vid'
p715
S'0x1B4F'
p716
sS'pid'
p717
S'0x9208'
p718
sS'variant'
p719
S'leonardo'
p720
sS'mcu'
p721
S'atmega32u4'
p722
ssS'bootloader'
p723
(dp724
S'extended_fuses'
p725
S'0xce'
p726
sS'high_fuses'
p727
S'0xd8'
p728
sS'low_fuses'
p729
S'0xff'
p730
sS'lock_bits'
p731
S'0x2F'
p732
sS'file'
p733
S'Caterina-LilyPadUSB.hex'
p734
sS'path'
p735
S'caterina-LilyPadUSB'
p736
sS'unlock_bits'
p737
S'0x3F'
p738
ssS'upload'
p739
(dp740
S'protocol'
p741
S'avr109'
p742
sS'maximum_size'
p743
S'28672'
p744
sS'speed'
p745
S'57600'
p746
sS'disable_flushing'
p747
S'true'
p748
ssS'name'
p749
S'LilyPad Arduino USB'
p750
saa(lp751
S'lilypad328'
p752
a(dp753
S'build'
p754
(dp755
S'core'
p756
S'arduino'
p757
sS'mcu'
p758
S'atmega328p'
p759
sS'f_cpu'
p760
S'8000000L'
p761
sS'variant'
p762
S'standard'
p763
ssS'bootloader'
p764
(dp765
S'extended_fuses'
p766
S'0x05'
p767
sS'high_fuses'
p768
S'0xDA'
p769
sS'low_fuses'
p770
S'0xFF'
p771
sS'lock_bits'
p772
S'0x0F'
p773
sS'file'
p774
S'ATmegaBOOT_168_atmega328_pro_8MHz.hex'
p775
sS'path'
p776
S'atmega'
p777
sS'unlock_bits'
p778
S'0x3F'
p779
ssS'upload'
p780
(dp781
S'protocol'
p782
S'arduino'
p783
sS'maximum_size'
p784
S'30720'
p785
sS'speed'
p786
S'57600'
p787
ssS'name'
p788
S'LilyPad Arduino w/ ATmega328'
p789
saa(lp790
S'lilypad'
p791
a(dp792
S'build'
p793
(dp794
S'core'
p795
S'arduino'
p796
sS'mcu'
p797
S'atmega168'
p798
sS'f_cpu'
p799
S'8000000L'
p800
sS'variant'
p801
S'standard'
p802
ssS'bootloader'
p803
(dp804
S'extended_fuses'
p805
S'0x00'
p806
sS'high_fuses'
p807
S'0xdd'
p808
sS'low_fuses'
p809
S'0xe2'
p810
sS'lock_bits'
p811
S'0x0F'
p812
sS'file'
p813
S'LilyPadBOOT_168.hex'
p814
sS'path'
p815
S'lilypad'
p816
sS'unlock_bits'
p817
S'0x3F'
p818
ssS'upload'
p819
(dp820
S'protocol'
p821
S'arduino'
p822
sS'maximum_size'
p823
S'14336'
p824
sS'speed'
p825
S'19200'
p826
ssS'name'
p827
S'LilyPad Arduino w/ ATmega168'
p828
saa(lp829
S'pro5v328'
p830
a(dp831
S'build'
p832
(dp833
S'core'
p834
S'arduino'
p835
sS'mcu'
p836
S'atmega328p'
p837
sS'f_cpu'
p838
S'16000000L'
p839
sS'variant'
p840
S'standard'
p841
ssS'bootloader'
p842
(dp843
S'extended_fuses'
p844
S'0x05'
p845
sS'high_fuses'
p846
S'0xDA'
p847
sS'low_fuses'
p848
S'0xFF'
p849
sS'lock_bits'
p850
S'0x0F'
p851
sS'file'
p852
S'ATmegaBOOT_168_atmega328.hex'
p853
sS'path'
p854
S'atmega'
p855
sS'unlock_bits'
p856
S'0x3F'
p857
ssS'upload'
p858
(dp859
S'protocol'
p860
S'arduino'
p861
sS'maximum_size'
p862
S'30720'
p863
sS'speed'
p864
S'57600'
p865
ssS'name'
p866
S'Arduino Pro or Pro Mini (5V, 16 MHz) w/ ATmega328'
p867
saa(lp868
S'pro5v'
p869
a(dp870
S'build'
p871
(dp872
S'core'
p873
S'arduino'
p874
sS'mcu'
p875
S'atmega168'
p876
sS'f_cpu'
p877
S'16000000L'
p878
sS'variant'
p879
S'standard'
p880
ssS'bootloader'
p881
(dp882
S'extended_fuses'
p883
S'0x00'
p884
sS'high_fuses'
p885
S'0xdd'
p886
sS'low_fuses'
p887
S'0xff'
p888
sS'lock_bits'
p889
S'0x0F'
p890
sS'file'
p891
S'ATmegaBOOT_168_diecimila.hex'
p892
sS'path'
p893
S'atmega'
p894
sS'unlock_bits'
p895
S'0x3F'
p896
ssS'upload'
p897
(dp898
S'protocol'
p899
S'arduino'
p900
sS'maximum_size'
p901
S'14336'
p902
sS'speed'
p903
S'19200'
p904
ssS'name'
p905
S'Arduino Pro or Pro Mini (5V, 16 MHz) w/ ATmega168'
p906
saa(lp907
S'pro328'
p908
a(dp909
S'build'
p910
(dp911
S'core'
p912
S'arduino'
p913
sS'mcu'
p914
S'atmega328p'
p915
sS'f_cpu'
p916
S'8000000L'
p917
sS'variant'
p918
S'standard'
p919
ssS'bootloader'
p920
(dp921
S'extended_fuses'
p922
S'0x05'
p923
sS'high_fuses'
p924
S'0xDA'
p925
sS'low_fuses'
p926
S'0xFF'
p927
sS'lock_bits'
p928
S'0x0F'
p929
sS'file'
p930
S'ATmegaBOOT_168_atmega328_pro_8MHz.hex'
p931
sS'path'
p932
S'atmega'
p933
sS'unlock_bits'
p934
S'0x3F'
p935
ssS'upload'
p936
(dp937
S'protocol'
p938
S'arduino'
p939
sS'maximum_size'
p940
S'30720'
p941
sS'speed'
p942
S'57600'
p943
ssS'name'
p944
S'Arduino Pro or Pro Mini (3.3V, 8 MHz) w/ ATmega328'
p945
saa(lp946
S'pro'
p947
a(dp948
S'build'
p949
(dp950
S'core'
p951
S'arduino'
p952
sS'mcu'
p953
S'atmega168'
p954
sS'f_cpu'
p955
S'8000000L'
p956
sS'variant'
p957
S'standard'
p958
ssS'bootloader'
p959
(dp960
S'extended_fuses'
p961
S'0x00'
p962
sS'high_fuses'
p963
S'0xdd'
p964
sS'low_fuses'
p965
S'0xc6'
p966
sS'lock_bits'
p967
S'0x0F'
p968
sS'file'
p969
S'ATmegaBOOT_168_pro_8MHz.hex'
p970
sS'path'
p971
S'atmega'
p972
sS'unlock_bits'
p973
S'0x3F'
p974
ssS'upload'
p975
(dp976
S'protocol'
p977
S'arduino'
p978
sS'maximum_size'
p979
S'14336'
p980
sS'speed'
p981
S'19200'
p982
ssS'name'
p983
S'Arduino Pro or Pro Mini (3.3V, 8 MHz) w/ ATmega168'
p984
saa(lp985
S'atmega168'
p986
a(dp987
S'build'
p988
(dp989
S'core'
p990
S'arduino'
p991
sS'mcu'
p992
S'atmega168'
p993
sS'f_cpu'
p994
S'16000000L'
p995
sS'variant'
p996
S'standard'
p997
ssS'bootloader'
p998
(dp999
S'extended_fuses'
p1000
S'0x00'
p1001
sS'high_fuses'
p1002
S'0xdd'
p1003
sS'low_fuses'
p1004
S'0xff'
p1005
sS'lock_bits'
p1006
S'0x0F'
p1007
sS'file'
p1008
S'ATmegaBOOT_168_ng.hex'
p1009
sS'path'
p1010
S'atmega'
p1011
sS'unlock_bits'
p1012
S'0x3F'
p1013
ssS'upload'
p1014
(dp1015
S'protocol'
p1016
S'arduino'
p1017
sS'maximum_size'
p1018
S'14336'
p1019
sS'speed'
p1020
S'19200'
p1021
ssS'name'
p1022
S'Arduino NG or older w/ ATmega168'
p1023
saa(lp1024
S'atmega8'
p1025
a(dp1026
S'build'
p1027
(dp1028
S'core'
p1029
S'arduino'
p1030
sS'mcu'
p1031
S'atmega8'
p1032
sS'f_cpu'
p1033
S'16000000L'
p1034
sS'variant'
p1035
S'standard'
p1036
ssS'bootloader'
p1037
(dp1038
S'high_fuses'
p1039
S'0xca'
p1040
sS'low_fuses'
p1041
S'0xdf'
p1042
sS'lock_bits'
p1043
S'0x0F'
p1044
sS'file'
p1045
S'ATmegaBOOT-prod-firmware-2009-11-07.hex'
p1046
sS'path'
p1047
S'atmega8'
p1048
sS'unlock_bits'
p1049
S'0x3F'
p1050
ssS'upload'
p1051
(dp1052
S'protocol'
p1053
S'arduino'
p1054
sS'maximum_size'
p1055
S'7168'
p1056
sS'speed'
p1057
S'19200'
p1058
ssS'name'
p1059
S'Arduino NG or older w/ ATmega8'
p1060
saa(lp1061
S'robotControl'
p1062
a(dp1063
S'build'
p1064
(dp1065
S'core'
p1066
S'robot'
p1067
sS'f_cpu'
p1068
S'16000000L'
p1069
sS'vid'
p1070
S'0x2341'
p1071
sS'pid'
p1072
S'0x8038'
p1073
sS'variant'
p1074
S'robot_control'
p1075
sS'mcu'
p1076
S'atmega32u4'
p1077
ssS'bootloader'
p1078
(dp1079
S'extended_fuses'
p1080
S'0xcb'
p1081
sS'high_fuses'
p1082
S'0xd8'
p1083
sS'low_fuses'
p1084
S'0xff'
p1085
sS'lock_bits'
p1086
S'0x2F'
p1087
sS'file'
p1088
S'Caterina-Robot-Control.hex'
p1089
sS'path'
p1090
S'caterina-Arduino_Robot'
p1091
sS'unlock_bits'
p1092
S'0x3F'
p1093
ssS'upload'
p1094
(dp1095
S'protocol'
p1096
S'avr109'
p1097
sS'maximum_size'
p1098
S'28672'
p1099
sS'speed'
p1100
S'57600'
p1101
sS'disable_flushing'
p1102
S'true'
p1103
ssS'name'
p1104
S'Arduino Robot Control'
p1105
saa(lp1106
S'robotMotor'
p1107
a(dp1108
S'build'
p1109
(dp1110
S'core'
p1111
S'robot'
p1112
sS'f_cpu'
p1113
S'16000000L'
p1114
sS'vid'
p1115
S'0x2341'
p1116
sS'pid'
p1117
S'0x8039'
p1118
sS'variant'
p1119
S'robot_motor'
p1120
sS'mcu'
p1121
S'atmega32u4'
p1122
ssS'bootloader'
p1123
(dp1124
S'extended_fuses'
p1125
S'0xcb'
p1126
sS'high_fuses'
p1127
S'0xd8'
p1128
sS'low_fuses'
p1129
S'0xff'
p1130
sS'lock_bits'
p1131
S'0x2F'
p1132
sS'file'
p1133
S'Caterina-Robot-Motor.hex'
p1134
sS'path'
p1135
S'caterina-Arduino_Robot'
p1136
sS'unlock_bits'
p1137
S'0x3F'
p1138
ssS'upload'
p1139
(dp1140
S'protocol'
p1141
S'avr109'
p1142
sS'maximum_size'
p1143
S'28672'
p1144
sS'speed'
p1145
S'57600'
p1146
sS'disable_flushing'
p1147
S'true'
p1148
ssS'name'
p1149
S'Arduino Robot Motor'
p1150
saatp1151
Rp1152
(dp1153
S'default'
p1154
S'uno'
p1155
sbtp1156
a(S'used_libs'
p1157
(lp1158
S'/Applications/Arduino.app/Contents/Resources/Java/hardware/arduino/cores/arduino'
p1159
atp1160
a(S'make'
p1161
S'/Applications/Arduino.app/Contents/Resources/Java/hardware/tools/avr/bin/make'
p1162
tp1163
a(S'arduino_libraries_dir'
p1164
S'/Applications/Arduino.app/Contents/Resources/Java/libraries'
p1165
tp1166
a(S'cc'
p1167
S'/Applications/Arduino.app/Contents/Resources/Java/hardware/tools/avr/bin/avr-gcc'
p1168
tp1169
a(S'cflags'
p1170
g2
(g3
g4
(lp1171
tp1172
Rp1173
tp1174
a(S'cxxflags'
p1175
g2
(g3
g4
(lp1176
S'-fno-exceptions'
p1177
atp1178
Rp1179
tp1180
a(S'arduino_variants_dir'
p1181
S'/Applications/Arduino.app/Contents/Resources/Java/hardware/arduino/variants'
p1182
tp1183
a(S'stty'
p1184
S'/bin/stty'
p1185
tp1186
a(S'version.txt'
p1187
S'/Applications/Arduino.app/Contents/Resources/Java/lib/version.txt'
p1188
tp1189
a(S'arduino_core_dir'
p1190
g1159
tp1191
a(S'boards.txt'
p1192
S'/Applications/Arduino.app/Contents/Resources/Java/hardware/arduino/boards.txt'
p1193
tp1194
a(S'avrdude.conf'
p1195
S'/Applications/Arduino.app/Contents/Resources/Java/hardware/tools/avr/etc/avrdude.conf'
p1196
tp1197
a(S'deps'
p1198
g2
(g3
g4
(lp1199
S'.build/uno/src/dependencies.d'
p1200
aS'.build/uno/arduino/dependencies.d'
p1201
atp1202
Rp1203
tp1204
a(S'arduino_lib_version'
p1205
g2
(cino.environment
Version
p1206
c__builtin__
tuple
p1207
(I1
I0
I5
tp1208
tp1209
Rp1210
tp1211
a.